target datalayout = "e-m:e-p270:32:32-p271:32:32-p272:64:64-i64:64-i128:128-f80:128-n8:16:32:64-S128"
target triple = "x86_64-pc-linux-gnu"

%struct.RelFileLocator = type { i32, i32, i32 }
%struct.FileTag = type { i16, i16, %struct.RelFileLocator, i64 }

; Function Attrs: nounwind uwtable
define dso_local void @ForgetDatabaseSyncRequests(i32 noundef %0) #0 {
  %2 = alloca i32, align 4
  %3 = alloca %struct.FileTag, align 8
  %4 = alloca %struct.RelFileLocator, align 4
  store i32 %0, ptr %2, align 4
  call void @llvm.lifetime.start.p0(i64 24, ptr %3) #10
  call void @llvm.lifetime.start.p0(i64 12, ptr %4) #10
  %5 = load i32, ptr %2, align 4
  %6 = getelementptr inbounds nuw %struct.RelFileLocator, ptr %4, i32 0, i32 1
  store i32 %5, ptr %6, align 4
  %7 = getelementptr inbounds nuw %struct.RelFileLocator, ptr %4, i32 0, i32 0
  store i32 0, ptr %7, align 4
  %8 = getelementptr inbounds nuw %struct.RelFileLocator, ptr %4, i32 0, i32 2
  store i32 0, ptr %8, align 4
  call void @llvm.memset.p0.i64(ptr align 8 %3, i8 0, i64 24, i1 false)
  %9 = getelementptr inbounds nuw %struct.FileTag, ptr %3, i32 0, i32 0
  store i16 0, ptr %9, align 8
  %10 = getelementptr inbounds nuw %struct.FileTag, ptr %3, i32 0, i32 2
  call void @llvm.memcpy.p0.p0.i64(ptr align 4 %10, ptr align 4 %4, i64 12, i1 false)
  %11 = getelementptr inbounds nuw %struct.FileTag, ptr %3, i32 0, i32 1
  store i16 -1, ptr %11, align 2
  %12 = getelementptr inbounds nuw %struct.FileTag, ptr %3, i32 0, i32 3
  store i64 4294967295, ptr %12, align 8
  %13 = call zeroext i1 @RegisterSyncRequest(ptr noundef %3, i32 noundef 3, i1 noundef zeroext true)
  call void @llvm.lifetime.end.p0(i64 12, ptr %4) #10
  call void @llvm.lifetime.end.p0(i64 24, ptr %3) #10
  ret void
}