; Function Attrs: nounwind uwtable
define dso_local void @ForgetDatabaseSyncRequests(i32 noundef %0) local_unnamed_addr #0 {
  %2 = alloca %struct.FileTag, align 8
  call void @llvm.lifetime.start.p0(i64 24, ptr nonnull %2) #15
  %.sroa.4.0..sroa_idx = getelementptr inbounds nuw i8, ptr %2, i64 8
  store i64 0, ptr %2, align 8
  store i32 %0, ptr %.sroa.4.0..sroa_idx, align 8
  %.sroa.5.0..sroa_idx = getelementptr inbounds nuw i8, ptr %2, i64 12
  store i32 0, ptr %.sroa.5.0..sroa_idx, align 4
  %3 = getelementptr inbounds nuw i8, ptr %2, i64 2
  store i16 -1, ptr %3, align 2
  %4 = getelementptr inbounds nuw i8, ptr %2, i64 16
  store i64 4294967295, ptr %4, align 8
  %5 = call zeroext i1 @RegisterSyncRequest(ptr noundef nonnull %2, i32 noundef 3, i1 noundef zeroext true) #15
  call void @llvm.lifetime.end.p0(i64 24, ptr nonnull %2) #15
  ret void
}